target datalayout = "e-m:e-p270:32:32-p271:32:32-p272:64:64-i64:64-i128:128-f80:128-n8:16:32:64-S128"
target triple = "x86_64-pc-linux-gnu"

%"class.pxrInternal_v0_24__pxrReserved__::GfVec4f" = type { [4 x float] }
%"class.pxrInternal_v0_24__pxrReserved__::GfVec4i" = type { [4 x i32] }

; Function Attrs: mustprogress nounwind uwtable
define linkonce_odr noundef nonnull align 4 dereferenceable(4) ptr @_ZNK32pxrInternal_v0_24__pxrReserved__7GfVec4iixEm(ptr noundef nonnull align 4 dereferenceable(16) %0, i64 noundef %1) #2 comdat align 2 {
  %3 = alloca ptr, align 8
  %4 = alloca i64, align 8
  store ptr %0, ptr %3, align 8
  store i64 %1, ptr %4, align 8
  %5 = load ptr, ptr %3, align 8
  %6 = getelementptr inbounds nuw %"class.pxrInternal_v0_24__pxrReserved__::GfVec4i", ptr %5, i32 0, i32 0
  %7 = load i64, ptr %4, align 8
  %8 = getelementptr inbounds [4 x i32], ptr %6, i64 0, i64 %7
  ret ptr %8
}

; Function Attrs: mustprogress uwtable
define noundef zeroext i1 @_ZNK32pxrInternal_v0_24__pxrReserved__7GfVec4feqERKNS_7GfVec4iE(ptr noundef nonnull align 4 dereferenceable(16) %0, ptr noundef nonnull align 4 dereferenceable(16) %1) #0 align 2 {
  %3 = alloca ptr, align 8
  %4 = alloca ptr, align 8
  store ptr %0, ptr %3, align 8
  store ptr %1, ptr %4, align 8
  %5 = load ptr, ptr %3, align 8
  %6 = getelementptr inbounds nuw %"class.pxrInternal_v0_24__pxrReserved__::GfVec4f", ptr %5, i32 0, i32 0
  %7 = getelementptr inbounds [4 x float], ptr %6, i64 0, i64 0
  %8 = load float, ptr %7, align 4
  %9 = load ptr, ptr %4, align 8
  %10 = call noundef nonnull align 4 dereferenceable(4) ptr @_ZNK32pxrInternal_v0_24__pxrReserved__7GfVec4iixEm(ptr noundef nonnull align 4 dereferenceable(16) %9, i64 noundef 0)
  %11 = load i32, ptr %10, align 4
  %12 = sitofp i32 %11 to float
  %13 = fcmp oeq float %8, %12
  br i1 %13, label %14, label %41

14:                                               ; preds = %2
  %15 = getelementptr inbounds nuw %"class.pxrInternal_v0_24__pxrReserved__::GfVec4f", ptr %5, i32 0, i32 0
  %16 = getelementptr inbounds [4 x float], ptr %15, i64 0, i64 1
  %17 = load float, ptr %16, align 4
  %18 = load ptr, ptr %4, align 8
  %19 = call noundef nonnull align 4 dereferenceable(4) ptr @_ZNK32pxrInternal_v0_24__pxrReserved__7GfVec4iixEm(ptr noundef nonnull align 4 dereferenceable(16) %18, i64 noundef 1)
  %20 = load i32, ptr %19, align 4
  %21 = sitofp i32 %20 to float
  %22 = fcmp oeq float %17, %21
  br i1 %22, label %23, label %41

23:                                               ; preds = %14
  %24 = getelementptr inbounds nuw %"class.pxrInternal_v0_24__pxrReserved__::GfVec4f", ptr %5, i32 0, i32 0
  %25 = getelementptr inbounds [4 x float], ptr %24, i64 0, i64 2
  %26 = load float, ptr %25, align 4
  %27 = load ptr, ptr %4, align 8
  %28 = call noundef nonnull align 4 dereferenceable(4) ptr @_ZNK32pxrInternal_v0_24__pxrReserved__7GfVec4iixEm(ptr noundef nonnull align 4 dereferenceable(16) %27, i64 noundef 2)
  %29 = load i32, ptr %28, align 4
  %30 = sitofp i32 %29 to float
  %31 = fcmp oeq float %26, %30
  br i1 %31, label %32, label %41

32:                                               ; preds = %23
  %33 = getelementptr inbounds nuw %"class.pxrInternal_v0_24__pxrReserved__::GfVec4f", ptr %5, i32 0, i32 0
  %34 = getelementptr inbounds [4 x float], ptr %33, i64 0, i64 3
  %35 = load float, ptr %34, align 4
  %36 = load ptr, ptr %4, align 8
  %37 = call noundef nonnull align 4 dereferenceable(4) ptr @_ZNK32pxrInternal_v0_24__pxrReserved__7GfVec4iixEm(ptr noundef nonnull align 4 dereferenceable(16) %36, i64 noundef 3)
  %38 = load i32, ptr %37, align 4
  %39 = sitofp i32 %38 to float
  %40 = fcmp oeq float %35, %39
  br label %41

41:                                               ; preds = %32, %23, %14, %2
  %42 = phi i1 [ false, %23 ], [ false, %14 ], [ false, %2 ], [ %40, %32 ]
  ret i1 %42
}